target datalayout = "e-m:e-p270:32:32-p271:32:32-p272:64:64-i64:64-i128:128-f80:128-n8:16:32:64-S128"
target triple = "x86_64-pc-linux-gnu"

%struct._object = type { i64, ptr }
%struct.py_annoy = type { %struct._object, i32, ptr }

@PyExc_IndexError = external global ptr, align 8
@.str = private unnamed_addr constant [31 x i8] c"Item index can not be negative\00", align 1
@.str.1 = private unnamed_addr constant [46 x i8] c"Item index larger than the largest item index\00", align 1
@.str.52 = private unnamed_addr constant [3 x i8] c"ii\00", align 1

; Function Attrs: mustprogress sspstrong uwtable
define noundef zeroext i1 @_Z17check_constraintsP8py_annoyib(ptr noundef %0, i32 noundef %1, i1 noundef zeroext %2) #2 {
  %4 = alloca i1, align 1
  %5 = alloca ptr, align 8
  %6 = alloca i32, align 4
  %7 = alloca i8, align 1
  store ptr %0, ptr %5, align 8, !tbaa !31
  store i32 %1, ptr %6, align 4, !tbaa !12
  %8 = zext i1 %2 to i8
  store i8 %8, ptr %7, align 1, !tbaa !32
  %9 = load i32, ptr %6, align 4, !tbaa !12
  %10 = icmp slt i32 %9, 0
  br i1 %10, label %11, label %13

11:                                               ; preds = %3
  %12 = load ptr, ptr @PyExc_IndexError, align 8, !tbaa !14
  call void @PyErr_SetString(ptr noundef %12, ptr noundef @.str)
  store i1 false, ptr %4, align 1
  br label %29

13:                                               ; preds = %3
  %14 = load i8, ptr %7, align 1, !tbaa !32, !range !34, !noundef !35
  %15 = trunc i8 %14 to i1
  br i1 %15, label %28, label %16

16:                                               ; preds = %13
  %17 = load i32, ptr %6, align 4, !tbaa !12
  %18 = load ptr, ptr %5, align 8, !tbaa !31
  %19 = getelementptr inbounds nuw %struct.py_annoy, ptr %18, i32 0, i32 2
  %20 = load ptr, ptr %19, align 8, !tbaa !36
  %21 = load ptr, ptr %20, align 8, !tbaa !40
  %22 = getelementptr inbounds ptr, ptr %21, i64 11
  %23 = load ptr, ptr %22, align 8
  %24 = call noundef i32 %23(ptr noundef nonnull align 8 dereferenceable(8) %20)
  %25 = icmp sge i32 %17, %24
  br i1 %25, label %26, label %28

26:                                               ; preds = %16
  %27 = load ptr, ptr @PyExc_IndexError, align 8, !tbaa !14
  call void @PyErr_SetString(ptr noundef %27, ptr noundef @.str.1)
  store i1 false, ptr %4, align 1
  br label %29

28:                                               ; preds = %16, %13
  store i1 true, ptr %4, align 1
  br label %29

29:                                               ; preds = %28, %26, %11
  %30 = load i1, ptr %4, align 1
  ret i1 %30
}

; Function Attrs: mustprogress sspstrong uwtable
define internal noundef ptr @_ZL18py_an_get_distanceP8py_annoyP7_object(ptr noundef %0, ptr noundef %1) #2 {
  %3 = alloca ptr, align 8
  %4 = alloca ptr, align 8
  %5 = alloca ptr, align 8
  %6 = alloca i32, align 4
  %7 = alloca i32, align 4
  %8 = alloca i32, align 4
  %9 = alloca double, align 8
  store ptr %0, ptr %4, align 8, !tbaa !31
  store ptr %1, ptr %5, align 8, !tbaa !14
  call void @llvm.lifetime.start.p0(i64 4, ptr %6) #28
  call void @llvm.lifetime.start.p0(i64 4, ptr %7) #28
  %10 = load ptr, ptr %4, align 8, !tbaa !31
  %11 = getelementptr inbounds nuw %struct.py_annoy, ptr %10, i32 0, i32 2
  %12 = load ptr, ptr %11, align 8, !tbaa !36
  %13 = icmp ne ptr %12, null
  br i1 %13, label %15, label %14

14:                                               ; preds = %2
  store ptr null, ptr %3, align 8
  store i32 1, ptr %8, align 4
  br label %42

15:                                               ; preds = %2
  %16 = load ptr, ptr %5, align 8, !tbaa !14
  %17 = call i32 (ptr, ptr, ...) @PyArg_ParseTuple(ptr noundef %16, ptr noundef @.str.52, ptr noundef %6, ptr noundef %7)
  %18 = icmp ne i32 %17, 0
  br i1 %18, label %20, label %19

19:                                               ; preds = %15
  store ptr null, ptr %3, align 8
  store i32 1, ptr %8, align 4
  br label %42

20:                                               ; preds = %15
  %21 = load ptr, ptr %4, align 8, !tbaa !31
  %22 = load i32, ptr %6, align 4, !tbaa !12
  %23 = call noundef zeroext i1 @_Z17check_constraintsP8py_annoyib(ptr noundef %21, i32 noundef %22, i1 noundef zeroext false)
  br i1 %23, label %24, label %28

24:                                               ; preds = %20
  %25 = load ptr, ptr %4, align 8, !tbaa !31
  %26 = load i32, ptr %7, align 4, !tbaa !12
  %27 = call noundef zeroext i1 @_Z17check_constraintsP8py_annoyib(ptr noundef %25, i32 noundef %26, i1 noundef zeroext false)
  br i1 %27, label %29, label %28

28:                                               ; preds = %24, %20
  store ptr null, ptr %3, align 8
  store i32 1, ptr %8, align 4
  br label %42

29:                                               ; preds = %24
  call void @llvm.lifetime.start.p0(i64 8, ptr %9) #28
  %30 = load ptr, ptr %4, align 8, !tbaa !31
  %31 = getelementptr inbounds nuw %struct.py_annoy, ptr %30, i32 0, i32 2
  %32 = load ptr, ptr %31, align 8, !tbaa !36
  %33 = load i32, ptr %6, align 4, !tbaa !12
  %34 = load i32, ptr %7, align 4, !tbaa !12
  %35 = load ptr, ptr %32, align 8, !tbaa !40
  %36 = getelementptr inbounds ptr, ptr %35, i64 8
  %37 = load ptr, ptr %36, align 8
  %38 = call nnan ninf nsz arcp contract afn noundef nofpclass(nan inf) float %37(ptr noundef nonnull align 8 dereferenceable(8) %32, i32 noundef %33, i32 noundef %34)
  %39 = fpext nnan ninf nsz arcp contract afn float %38 to double
  store double %39, ptr %9, align 8, !tbaa !42
  %40 = load double, ptr %9, align 8, !tbaa !42
  %41 = call ptr @PyFloat_FromDouble(double noundef nofpclass(nan inf) %40)
  store ptr %41, ptr %3, align 8
  store i32 1, ptr %8, align 4
  call void @llvm.lifetime.end.p0(i64 8, ptr %9) #28
  br label %42

42:                                               ; preds = %29, %28, %19, %14
  call void @llvm.lifetime.end.p0(i64 4, ptr %7) #28
  call void @llvm.lifetime.end.p0(i64 4, ptr %6) #28
  %43 = load ptr, ptr %3, align 8
  ret ptr %43
}