; Function Attrs: mustprogress sspstrong uwtable
define internal noundef ptr @_ZL18py_an_get_distanceP8py_annoyP7_object(ptr noundef readonly captures(none) %0, ptr noundef %1) #2 {
  %3 = alloca i32, align 4
  %4 = alloca i32, align 4
  call void @llvm.lifetime.start.p0(i64 4, ptr nonnull %3) #33
  call void @llvm.lifetime.start.p0(i64 4, ptr nonnull %4) #33
  %5 = getelementptr inbounds nuw i8, ptr %0, i64 24
  %6 = load ptr, ptr %5, align 8, !tbaa !25
  %.not = icmp eq ptr %6, null
  br i1 %.not, label %39, label %7

7:                                                ; preds = %2
  %8 = call i32 (ptr, ptr, ...) @PyArg_ParseTuple(ptr noundef %1, ptr noundef nonnull @.str.52, ptr noundef nonnull %3, ptr noundef nonnull %4)
  %.not7 = icmp eq i32 %8, 0
  br i1 %.not7, label %39, label %9

9:                                                ; preds = %7
  %10 = load i32, ptr %3, align 4, !tbaa !10
  %11 = icmp slt i32 %10, 0
  br i1 %11, label %_Z17check_constraintsP8py_annoyib.exit, label %12

12:                                               ; preds = %9
  %13 = load ptr, ptr %5, align 8, !tbaa !25
  %14 = load ptr, ptr %13, align 8, !tbaa !28
  %15 = getelementptr inbounds nuw i8, ptr %14, i64 88
  %16 = load ptr, ptr %15, align 8
  %17 = call noundef i32 %16(ptr noundef nonnull align 8 dereferenceable(8) %13)
  %.not.i = icmp slt i32 %10, %17
  br i1 %.not.i, label %19, label %_Z17check_constraintsP8py_annoyib.exit

_Z17check_constraintsP8py_annoyib.exit:           ; preds = %9, %12
  %.str.1.sink.i = phi ptr [ @.str, %9 ], [ @.str.1, %12 ]
  %18 = load ptr, ptr @PyExc_IndexError, align 8, !tbaa !30
  call void @PyErr_SetString(ptr noundef %18, ptr noundef nonnull %.str.1.sink.i)
  br label %39

19:                                               ; preds = %12
  %20 = load i32, ptr %4, align 4, !tbaa !10
  %21 = icmp slt i32 %20, 0
  br i1 %21, label %_Z17check_constraintsP8py_annoyib.exit12, label %22

22:                                               ; preds = %19
  %23 = load ptr, ptr %5, align 8, !tbaa !25
  %24 = load ptr, ptr %23, align 8, !tbaa !28
  %25 = getelementptr inbounds nuw i8, ptr %24, i64 88
  %26 = load ptr, ptr %25, align 8
  %27 = call noundef i32 %26(ptr noundef nonnull align 8 dereferenceable(8) %23)
  %.not.i8 = icmp slt i32 %20, %27
  br i1 %.not.i8, label %29, label %_Z17check_constraintsP8py_annoyib.exit12

_Z17check_constraintsP8py_annoyib.exit12:         ; preds = %19, %22
  %.str.1.sink.i10 = phi ptr [ @.str, %19 ], [ @.str.1, %22 ]
  %28 = load ptr, ptr @PyExc_IndexError, align 8, !tbaa !30
  call void @PyErr_SetString(ptr noundef %28, ptr noundef nonnull %.str.1.sink.i10)
  br label %39

29:                                               ; preds = %22
  %30 = load ptr, ptr %5, align 8, !tbaa !25
  %31 = load i32, ptr %3, align 4, !tbaa !10
  %32 = load i32, ptr %4, align 4, !tbaa !10
  %33 = load ptr, ptr %30, align 8, !tbaa !28
  %34 = getelementptr inbounds nuw i8, ptr %33, i64 64
  %35 = load ptr, ptr %34, align 8
  %36 = call nnan ninf nsz arcp contract afn noundef nofpclass(nan inf) float %35(ptr noundef nonnull align 8 dereferenceable(8) %30, i32 noundef %31, i32 noundef %32)
  %37 = fpext nnan ninf nsz arcp contract afn float %36 to double
  %38 = call ptr @PyFloat_FromDouble(double noundef nofpclass(nan inf) %37)
  br label %39

39:                                               ; preds = %_Z17check_constraintsP8py_annoyib.exit12, %_Z17check_constraintsP8py_annoyib.exit, %7, %2, %29
  %.0 = phi ptr [ %38, %29 ], [ null, %2 ], [ null, %7 ], [ null, %_Z17check_constraintsP8py_annoyib.exit12 ], [ null, %_Z17check_constraintsP8py_annoyib.exit ]
  call void @llvm.lifetime.end.p0(i64 4, ptr nonnull %4) #33
  call void @llvm.lifetime.end.p0(i64 4, ptr nonnull %3) #33
  ret ptr %.0
}